target datalayout = "e-m:e-p270:32:32-p271:32:32-p272:64:64-i64:64-i128:128-f80:128-n8:16:32:64-S128"
target triple = "x86_64-pc-linux-gnu"

%struct.Pla_Man_t_ = type { ptr, ptr, i32, i32, i32, i32, i32, %struct.Vec_Int_t_, %struct.Vec_Int_t_, %struct.Vec_Wrd_t_, %struct.Vec_Wrd_t_, %struct.Vec_Wec_t_, %struct.Vec_Wec_t_, %struct.Vec_Int_t_ }
%struct.Vec_Wrd_t_ = type { i32, i32, ptr }
%struct.Vec_Wec_t_ = type { i32, i32, ptr }
%struct.Vec_Int_t_ = type { i32, i32, ptr }
%struct.timespec = type { i64, i64 }

@.str = private unnamed_addr constant [52 x i8] c"Found %d pairs among %d cubes using cube hashing.  \00", align 1
@.str.1 = private unnamed_addr constant [5 x i8] c"Time\00", align 1
@.str.4 = private unnamed_addr constant [5 x i8] c"%s =\00", align 1
@.str.5 = private unnamed_addr constant [11 x i8] c"%9.2f sec\0A\00", align 1

; Function Attrs: inlinehint nounwind uwtable
define internal i32 @Vec_IntSize(ptr noundef %0) #2 {
  %2 = alloca ptr, align 8
  store ptr %0, ptr %2, align 8, !tbaa !12
  %3 = load ptr, ptr %2, align 8, !tbaa !12
  %4 = getelementptr inbounds nuw %struct.Vec_Int_t_, ptr %3, i32 0, i32 1
  %5 = load i32, ptr %4, align 4, !tbaa !16
  ret i32 %5
}

; Function Attrs: inlinehint nounwind uwtable
define internal void @Abc_PrintTime(i32 noundef %0, ptr noundef %1, i64 noundef %2) #2 {
  %4 = alloca i32, align 4
  %5 = alloca ptr, align 8
  %6 = alloca i64, align 8
  store i32 %0, ptr %4, align 4, !tbaa !10
  store ptr %1, ptr %5, align 8, !tbaa !50
  store i64 %2, ptr %6, align 8, !tbaa !48
  %7 = load ptr, ptr %5, align 8, !tbaa !50
  call void (i32, ptr, ...) @Abc_Print(i32 noundef 1, ptr noundef @.str.4, ptr noundef %7)
  %8 = load i64, ptr %6, align 8, !tbaa !48
  %9 = sitofp i64 %8 to double
  %10 = fmul double 1.000000e+00, %9
  %11 = fdiv double %10, 1.000000e+06
  call void (i32, ptr, ...) @Abc_Print(i32 noundef 1, ptr noundef @.str.5, double noundef %11)
  ret void
}

; Function Attrs: inlinehint nounwind uwtable
define internal i32 @Pla_ManCubeNum(ptr noundef %0) #2 {
  %2 = alloca ptr, align 8
  store ptr %0, ptr %2, align 8, !tbaa !3
  %3 = load ptr, ptr %2, align 8, !tbaa !3
  %4 = getelementptr inbounds nuw %struct.Pla_Man_t_, ptr %3, i32 0, i32 7
  %5 = call i32 @Vec_IntSize(ptr noundef %4)
  ret i32 %5
}

; Function Attrs: inlinehint nounwind uwtable
define internal i64 @Abc_Clock() #2 {
  %1 = alloca i64, align 8
  %2 = alloca %struct.timespec, align 8
  %3 = alloca i32, align 4
  %4 = alloca i64, align 8
  call void @llvm.lifetime.start.p0(i64 16, ptr %2) #11
  %5 = call i32 @clock_gettime(i32 noundef 1, ptr noundef %2) #11
  %6 = icmp slt i32 %5, 0
  br i1 %6, label %7, label %8

7:                                                ; preds = %0
  store i64 -1, ptr %1, align 8
  store i32 1, ptr %3, align 4
  br label %19

8:                                                ; preds = %0
  call void @llvm.lifetime.start.p0(i64 8, ptr %4) #11
  %9 = getelementptr inbounds nuw %struct.timespec, ptr %2, i32 0, i32 0
  %10 = load i64, ptr %9, align 8, !tbaa !71
  %11 = mul nsw i64 %10, 1000000
  store i64 %11, ptr %4, align 8, !tbaa !48
  %12 = getelementptr inbounds nuw %struct.timespec, ptr %2, i32 0, i32 1
  %13 = load i64, ptr %12, align 8, !tbaa !73
  %14 = mul nsw i64 %13, 1000000
  %15 = sdiv i64 %14, 1000000000
  %16 = load i64, ptr %4, align 8, !tbaa !48
  %17 = add nsw i64 %16, %15
  store i64 %17, ptr %4, align 8, !tbaa !48
  %18 = load i64, ptr %4, align 8, !tbaa !48
  store i64 %18, ptr %1, align 8
  store i32 1, ptr %3, align 4
  call void @llvm.lifetime.end.p0(i64 8, ptr %4) #11
  br label %19

19:                                               ; preds = %8, %7
  call void @llvm.lifetime.end.p0(i64 16, ptr %2) #11
  %20 = load i64, ptr %1, align 8
  ret i64 %20
}

; Function Attrs: nounwind uwtable
define i32 @Pla_ManHashDist1NumTest(ptr noundef %0) #0 {
  %2 = alloca ptr, align 8
  %3 = alloca i64, align 8
  %4 = alloca i32, align 4
  store ptr %0, ptr %2, align 8, !tbaa !3
  call void @llvm.lifetime.start.p0(i64 8, ptr %3) #11
  %5 = call i64 @Abc_Clock()
  store i64 %5, ptr %3, align 8, !tbaa !48
  call void @llvm.lifetime.start.p0(i64 4, ptr %4) #11
  %6 = load ptr, ptr %2, align 8, !tbaa !3
  %7 = call i32 @Pla_ManHashDistance1(ptr noundef %6)
  store i32 %7, ptr %4, align 4, !tbaa !10
  %8 = load i32, ptr %4, align 4, !tbaa !10
  %9 = load ptr, ptr %2, align 8, !tbaa !3
  %10 = call i32 @Pla_ManCubeNum(ptr noundef %9)
  %11 = call i32 (ptr, ...) @printf(ptr noundef @.str, i32 noundef %8, i32 noundef %10)
  %12 = call i64 @Abc_Clock()
  %13 = load i64, ptr %3, align 8, !tbaa !48
  %14 = sub nsw i64 %12, %13
  call void @Abc_PrintTime(i32 noundef 1, ptr noundef @.str.1, i64 noundef %14)
  call void @llvm.lifetime.end.p0(i64 4, ptr %4) #11
  call void @llvm.lifetime.end.p0(i64 8, ptr %3) #11
  ret i32 1
}