; Function Attrs: nounwind uwtable
define noundef i32 @Pla_ManHashDist1NumTest(ptr noundef %0) local_unnamed_addr #0 {
  %2 = alloca %struct.timespec, align 8
  %3 = alloca %struct.timespec, align 8
  call void @llvm.lifetime.start.p0(i64 16, ptr nonnull %3) #19
  %4 = call i32 @clock_gettime(i32 noundef 1, ptr noundef nonnull %3) #19
  %5 = icmp slt i32 %4, 0
  br i1 %5, label %Abc_Clock.exit, label %6

6:                                                ; preds = %1
  %7 = load i64, ptr %3, align 8, !tbaa !41
  %.neg5 = mul i64 %7, -1000000
  %8 = getelementptr inbounds nuw i8, ptr %3, i64 8
  %9 = load i64, ptr %8, align 8, !tbaa !44
  %.neg = sdiv i64 %9, -1000
  %.neg6 = add i64 %.neg, %.neg5
  br label %Abc_Clock.exit

Abc_Clock.exit:                                   ; preds = %1, %6
  %.0.i.neg = phi i64 [ %.neg6, %6 ], [ 1, %1 ]
  call void @llvm.lifetime.end.p0(i64 16, ptr nonnull %3) #19
  %10 = call i32 @Pla_ManHashDistance1(ptr noundef %0)
  %11 = getelementptr i8, ptr %0, i64 44
  %.val = load i32, ptr %11, align 4, !tbaa !3
  %12 = call i32 (ptr, ...) @printf(ptr noundef nonnull dereferenceable(1) @.str, i32 noundef %10, i32 noundef %.val)
  call void @llvm.lifetime.start.p0(i64 16, ptr nonnull %2) #19
  %13 = call i32 @clock_gettime(i32 noundef 1, ptr noundef nonnull %2) #19
  %14 = icmp slt i32 %13, 0
  br i1 %14, label %Abc_Clock.exit4, label %15

15:                                               ; preds = %Abc_Clock.exit
  %16 = load i64, ptr %2, align 8, !tbaa !41
  %17 = mul nsw i64 %16, 1000000
  %18 = getelementptr inbounds nuw i8, ptr %2, i64 8
  %19 = load i64, ptr %18, align 8, !tbaa !44
  %20 = sdiv i64 %19, 1000
  %21 = add nsw i64 %20, %17
  br label %Abc_Clock.exit4

Abc_Clock.exit4:                                  ; preds = %Abc_Clock.exit, %15
  %.0.i3 = phi i64 [ %21, %15 ], [ -1, %Abc_Clock.exit ]
  call void @llvm.lifetime.end.p0(i64 16, ptr nonnull %2) #19
  %22 = add i64 %.0.i3, %.0.i.neg
  call void (i32, ptr, ...) @Abc_Print(i32 poison, ptr noundef nonnull @.str.4, ptr noundef nonnull @.str.1)
  %23 = sitofp i64 %22 to double
  %24 = fdiv double %23, 1.000000e+06
  call void (i32, ptr, ...) @Abc_Print(i32 poison, ptr noundef nonnull @.str.5, double noundef %24)
  ret i32 1
}